target datalayout = "e-m:e-p270:32:32-p271:32:32-p272:64:64-i64:64-i128:128-f80:128-n8:16:32:64-S128"
target triple = "x86_64-pc-linux-gnu"

%struct._zval_struct = type { %union._zend_value, %union.anon.0, %union.anon.3 }
%union._zend_value = type { i64 }
%union.anon.0 = type { i32 }
%union.anon.3 = type { i32 }
%struct._zend_array = type { %struct._zend_refcounted_h, %union.anon.5, i32, %union.anon.7, i32, i32, i32, i32, i64, ptr }
%struct._zend_refcounted_h = type { i32, %union.anon }
%union.anon = type { i32 }
%union.anon.5 = type { i32 }
%union.anon.7 = type { ptr }
%struct._zend_object = type { %struct._zend_refcounted_h, i32, ptr, ptr, ptr, [1 x %struct._zval_struct] }
%struct._zend_class_entry = type { i8, ptr, %union.anon.4, i32, i32, i32, i32, ptr, ptr, ptr, %struct._zend_array, %struct._zend_array, %struct._zend_array, ptr, ptr, ptr, ptr, ptr, ptr, ptr, ptr, ptr, ptr, ptr, ptr, ptr, ptr, ptr, ptr, ptr, ptr, ptr, %union.anon.8, ptr, ptr, ptr, ptr, i32, i32, %union.anon.9, ptr, ptr, ptr, ptr, i32, ptr, ptr, %union.anon.10 }
%union.anon.4 = type { ptr }
%union.anon.8 = type { ptr }
%union.anon.9 = type { ptr }
%union.anon.10 = type { %struct.anon.11 }
%struct.anon.11 = type { ptr, i32, i32 }

; Function Attrs: nounwind uwtable
define ptr @zend_std_get_class_name(ptr noundef %0) #0 {
  %2 = alloca ptr, align 8
  %3 = alloca i32, align 4
  %4 = alloca ptr, align 8
  %5 = alloca ptr, align 8
  store ptr %0, ptr %5, align 8
  %6 = load ptr, ptr %5, align 8
  %7 = getelementptr inbounds %struct._zend_object, ptr %6, i32 0, i32 2
  %8 = load ptr, ptr %7, align 8
  %9 = getelementptr inbounds %struct._zend_class_entry, ptr %8, i32 0, i32 1
  %10 = load ptr, ptr %9, align 8
  store ptr %10, ptr %4, align 8
  %11 = load ptr, ptr %4, align 8
  %12 = getelementptr inbounds %struct._zend_refcounted_h, ptr %11, i32 0, i32 1
  %13 = load i32, ptr %12, align 4
  store i32 %13, ptr %3, align 4
  %14 = load i32, ptr %3, align 4
  %15 = and i32 %14, 1008
  %16 = and i32 %15, 64
  %17 = icmp ne i32 %16, 0
  br i1 %17, label %23, label %18

18:                                               ; preds = %1
  %19 = load ptr, ptr %4, align 8
  store ptr %19, ptr %2, align 8
  %20 = load ptr, ptr %2, align 8
  %21 = load i32, ptr %20, align 4
  %22 = add i32 %21, 1
  store i32 %22, ptr %20, align 4
  br label %23

23:                                               ; preds = %18, %1
  %24 = load ptr, ptr %4, align 8
  ret ptr %24
}