; Function Attrs: mustprogress nofree norecurse nosync nounwind willreturn memory(readwrite, inaccessiblemem: none) uwtable
define ptr @zend_std_get_class_name(ptr nocapture noundef readonly %0) #10 {
  %2 = getelementptr inbounds i8, ptr %0, i64 16
  %3 = load ptr, ptr %2, align 8
  %4 = getelementptr inbounds i8, ptr %3, i64 8
  %5 = load ptr, ptr %4, align 8
  %6 = getelementptr inbounds i8, ptr %5, i64 4
  %7 = load i32, ptr %6, align 4
  %8 = and i32 %7, 64
  %.not = icmp eq i32 %8, 0
  br i1 %.not, label %9, label %12

9:                                                ; preds = %1
  %10 = load i32, ptr %5, align 4
  %11 = add i32 %10, 1
  store i32 %11, ptr %5, align 4
  br label %12

12:                                               ; preds = %9, %1
  ret ptr %5
}